; ModuleID = 'bench/openssl/original/cipher_aria_hw.ll'
source_filename = "bench/openssl/original/cipher_aria_hw.ll"
target datalayout = "e-m:e-p270:32:32-p271:32:32-p272:64:64-i64:64-i128:128-f80:128-n8:16:32:64-S128"
target triple = "x86_64-pc-linux-gnu"

%struct.prov_cipher_hw_st = type { ptr, ptr, ptr }

@aria_cbc = internal constant %struct.prov_cipher_hw_st { ptr @cipher_hw_aria_initkey, ptr @ossl_cipher_hw_chunked_cbc, ptr @cipher_hw_aria_copyctx }, align 8
@aria_ecb = internal constant %struct.prov_cipher_hw_st { ptr @cipher_hw_aria_initkey, ptr @ossl_cipher_hw_generic_ecb, ptr @cipher_hw_aria_copyctx }, align 8
@aria_ofb128 = internal constant %struct.prov_cipher_hw_st { ptr @cipher_hw_aria_initkey, ptr @ossl_cipher_hw_chunked_ofb128, ptr @cipher_hw_aria_copyctx }, align 8
@aria_cfb128 = internal constant %struct.prov_cipher_hw_st { ptr @cipher_hw_aria_initkey, ptr @ossl_cipher_hw_chunked_cfb128, ptr @cipher_hw_aria_copyctx }, align 8
@aria_cfb1 = internal constant %struct.prov_cipher_hw_st { ptr @cipher_hw_aria_initkey, ptr @ossl_cipher_hw_generic_cfb1, ptr @cipher_hw_aria_copyctx }, align 8
@aria_cfb8 = internal constant %struct.prov_cipher_hw_st { ptr @cipher_hw_aria_initkey, ptr @ossl_cipher_hw_chunked_cfb8, ptr @cipher_hw_aria_copyctx }, align 8
@aria_ctr = internal constant %struct.prov_cipher_hw_st { ptr @cipher_hw_aria_initkey, ptr @ossl_cipher_hw_generic_ctr, ptr @cipher_hw_aria_copyctx }, align 8
@.str = private unnamed_addr constant [62 x i8] c"../openssl/providers/implementations/ciphers/cipher_aria_hw.c\00", align 1
@__func__.cipher_hw_aria_initkey = private unnamed_addr constant [23 x i8] c"cipher_hw_aria_initkey\00", align 1

; Function Attrs: mustprogress nofree norecurse nosync nounwind willreturn memory(none) uwtable
define noundef nonnull ptr @ossl_prov_cipher_hw_aria_cbc(i64 noundef %0) local_unnamed_addr #0 {
  ret ptr @aria_cbc
}

; Function Attrs: mustprogress nofree norecurse nosync nounwind willreturn memory(none) uwtable
define noundef nonnull ptr @ossl_prov_cipher_hw_aria_ecb(i64 noundef %0) local_unnamed_addr #0 {
  ret ptr @aria_ecb
}

; Function Attrs: mustprogress nofree norecurse nosync nounwind willreturn memory(none) uwtable
define noundef nonnull ptr @ossl_prov_cipher_hw_aria_ofb128(i64 noundef %0) local_unnamed_addr #0 {
  ret ptr @aria_ofb128
}

; Function Attrs: mustprogress nofree norecurse nosync nounwind willreturn memory(none) uwtable
define noundef nonnull ptr @ossl_prov_cipher_hw_aria_cfb128(i64 noundef %0) local_unnamed_addr #0 {
  ret ptr @aria_cfb128
}

; Function Attrs: mustprogress nofree norecurse nosync nounwind willreturn memory(none) uwtable
define noundef nonnull ptr @ossl_prov_cipher_hw_aria_cfb1(i64 noundef %0) local_unnamed_addr #0 {
  ret ptr @aria_cfb1
}

; Function Attrs: mustprogress nofree norecurse nosync nounwind willreturn memory(none) uwtable
define noundef nonnull ptr @ossl_prov_cipher_hw_aria_cfb8(i64 noundef %0) local_unnamed_addr #0 {
  ret ptr @aria_cfb8
}

; Function Attrs: mustprogress nofree norecurse nosync nounwind willreturn memory(none) uwtable
define noundef nonnull ptr @ossl_prov_cipher_hw_aria_ctr(i64 noundef %0) local_unnamed_addr #0 {
  ret ptr @aria_ctr
}

; Function Attrs: nounwind uwtable
define internal range(i32 0, 2) i32 @cipher_hw_aria_initkey(ptr noundef %0, ptr noundef %1, i64 noundef %2) #1 {
  %4 = getelementptr inbounds nuw i8, ptr %0, i64 192
  %5 = getelementptr inbounds nuw i8, ptr %0, i64 108
  %6 = load i8, ptr %5, align 4
  %7 = and i8 %6, 2
  %.not = icmp eq i8 %7, 0
  br i1 %.not, label %8, label %12

8:                                                ; preds = %3
  %9 = getelementptr inbounds nuw i8, ptr %0, i64 64
  %10 = load i32, ptr %9, align 8, !tbaa !3
  %11 = add i32 %10, -3
  %or.cond = icmp ult i32 %11, -2
  br i1 %or.cond, label %12, label %15

12:                                               ; preds = %8, %3
  %.tr18 = trunc i64 %2 to i32
  %13 = shl i32 %.tr18, 3
  %14 = tail call i32 @ossl_aria_set_encrypt_key(ptr noundef %1, i32 noundef %13, ptr noundef nonnull %4) #5
  br label %18

15:                                               ; preds = %8
  %.tr = trunc i64 %2 to i32
  %16 = shl i32 %.tr, 3
  %17 = tail call i32 @ossl_aria_set_decrypt_key(ptr noundef %1, i32 noundef %16, ptr noundef nonnull %4) #5
  br label %18

18:                                               ; preds = %15, %12
  %.017 = phi i32 [ %14, %12 ], [ %17, %15 ]
  %19 = icmp slt i32 %.017, 0
  br i1 %19, label %20, label %21

20:                                               ; preds = %18
  tail call void @ERR_new() #5
  tail call void @ERR_set_debug(ptr noundef nonnull @.str, i32 noundef 25, ptr noundef nonnull @__func__.cipher_hw_aria_initkey) #5
  tail call void (i32, i32, ptr, ...) @ERR_set_error(i32 noundef 57, i32 noundef 101, ptr noundef null) #5
  br label %24

21:                                               ; preds = %18
  %22 = getelementptr inbounds nuw i8, ptr %0, i64 176
  store ptr %4, ptr %22, align 8, !tbaa !13
  %23 = getelementptr inbounds nuw i8, ptr %0, i64 48
  store ptr @ossl_aria_encrypt, ptr %23, align 8, !tbaa !14
  br label %24

24:                                               ; preds = %21, %20
  %.0 = phi i32 [ 0, %20 ], [ 1, %21 ]
  ret i32 %.0
}

declare i32 @ossl_cipher_hw_chunked_cbc(ptr noundef, ptr noundef, ptr noundef, i64 noundef) #2

; Function Attrs: mustprogress nofree norecurse nosync nounwind willreturn memory(argmem: readwrite) uwtable
define internal void @cipher_hw_aria_copyctx(ptr noundef initializes((0, 472)) %0, ptr noundef readonly captures(none) %1) #3 {
  tail call void @llvm.memcpy.p0.p0.i64(ptr noundef nonnull align 8 dereferenceable(472) %0, ptr noundef nonnull align 8 dereferenceable(472) %1, i64 472, i1 false), !tbaa.struct !15
  %3 = getelementptr inbounds nuw i8, ptr %0, i64 192
  %4 = getelementptr inbounds nuw i8, ptr %0, i64 176
  store ptr %3, ptr %4, align 8, !tbaa !13
  ret void
}

declare i32 @ossl_aria_set_encrypt_key(ptr noundef, i32 noundef, ptr noundef) local_unnamed_addr #2

declare i32 @ossl_aria_set_decrypt_key(ptr noundef, i32 noundef, ptr noundef) local_unnamed_addr #2

declare void @ERR_new() local_unnamed_addr #2

declare void @ERR_set_debug(ptr noundef, i32 noundef, ptr noundef) local_unnamed_addr #2

declare void @ERR_set_error(i32 noundef, i32 noundef, ptr noundef, ...) local_unnamed_addr #2

declare void @ossl_aria_encrypt(ptr noundef, ptr noundef, ptr noundef) #2

; Function Attrs: mustprogress nocallback nofree nounwind willreturn memory(argmem: readwrite)
declare void @llvm.memcpy.p0.p0.i64(ptr noalias writeonly captures(none), ptr noalias readonly captures(none), i64, i1 immarg) #4

declare i32 @ossl_cipher_hw_generic_ecb(ptr noundef, ptr noundef, ptr noundef, i64 noundef) #2

declare i32 @ossl_cipher_hw_chunked_ofb128(ptr noundef, ptr noundef, ptr noundef, i64 noundef) #2

declare i32 @ossl_cipher_hw_chunked_cfb128(ptr noundef, ptr noundef, ptr noundef, i64 noundef) #2

declare i32 @ossl_cipher_hw_generic_cfb1(ptr noundef, ptr noundef, ptr noundef, i64 noundef) #2

declare i32 @ossl_cipher_hw_chunked_cfb8(ptr noundef, ptr noundef, ptr noundef, i64 noundef) #2

declare i32 @ossl_cipher_hw_generic_ctr(ptr noundef, ptr noundef, ptr noundef, i64 noundef) #2


!llvm.module.flags = !{!0, !1, !2}

!0 = !{i32 1, !"wchar_size", i32 4}
!1 = !{i32 8, !"PIC Level", i32 2}
!2 = !{i32 7, !"uwtable", i32 2}
!3 = !{!4, !8, i64 64}
!4 = !{!"prov_cipher_ctx_st", !5, i64 0, !5, i64 16, !5, i64 32, !7, i64 48, !5, i64 56, !8, i64 64, !9, i64 72, !9, i64 80, !9, i64 88, !9, i64 96, !8, i64 104, !8, i64 108, !8, i64 108, !8, i64 108, !8, i64 108, !8, i64 108, !8, i64 108, !8, i64 108, !8, i64 108, !8, i64 112, !10, i64 120, !8, i64 128, !9, i64 136, !8, i64 144, !9, i64 152, !8, i64 160, !11, i64 168, !7, i64 176, !12, i64 184}
!5 = !{!"omnipotent char", !6, i64 0}
!6 = !{!"Simple C/C++ TBAA"}
!7 = !{!"any pointer", !5, i64 0}
!8 = !{!"int", !5, i64 0}
!9 = !{!"long", !5, i64 0}
!10 = !{!"p1 omnipotent char", !7, i64 0}
!11 = !{!"p1 _ZTS17prov_cipher_hw_st", !7, i64 0}
!12 = !{!"p1 _ZTS15ossl_lib_ctx_st", !7, i64 0}
!13 = !{!4, !7, i64 176}
!14 = !{!4, !7, i64 48}
!15 = !{i64 0, i64 16, !16, i64 16, i64 16, !16, i64 32, i64 16, !16, i64 48, i64 8, !17, i64 56, i64 8, !16, i64 64, i64 4, !18, i64 72, i64 8, !19, i64 80, i64 8, !19, i64 88, i64 8, !19, i64 96, i64 8, !19, i64 104, i64 4, !18, i64 108, i64 1, !16, i64 112, i64 4, !18, i64 120, i64 8, !20, i64 128, i64 4, !18, i64 136, i64 8, !19, i64 144, i64 4, !18, i64 152, i64 8, !19, i64 160, i64 4, !18, i64 168, i64 8, !21, i64 176, i64 8, !17, i64 184, i64 8, !22, i64 192, i64 280, !16}
!16 = !{!5, !5, i64 0}
!17 = !{!7, !7, i64 0}
!18 = !{!8, !8, i64 0}
!19 = !{!9, !9, i64 0}
!20 = !{!10, !10, i64 0}
!21 = !{!11, !11, i64 0}
!22 = !{!12, !12, i64 0}
